; Function Attrs: mustprogress uwtable
define hidden noundef zeroext i1 @_ZN4cvc58internal6theory7strings9RegExpOpr14regExpIncludesENS0_12NodeTemplateILb1EEES5_(ptr noundef nonnull align 8 dereferenceable(544) %0, ptr noundef readonly captures(none) %1, ptr noundef readonly captures(none) %2) local_unnamed_addr #3 align 2 personality ptr @__gxx_personality_v0 {
  %4 = alloca %"class.cvc5::internal::NodeTemplate", align 8
  %5 = alloca %"class.cvc5::internal::NodeTemplate", align 8
  %6 = load ptr, ptr %1, align 8, !tbaa !11
  store ptr %6, ptr %4, align 8, !tbaa !11
  %7 = load i64, ptr %6, align 8
  %8 = lshr i64 %7, 40
  %9 = trunc nuw nsw i64 %8 to i32
  %10 = and i32 %9, 1048575
  %11 = icmp samesign ult i32 %10, 1048574
  br i1 %11, label %12, label %17, !prof !86

12:                                               ; preds = %3
  %13 = add i64 %7, 1099511627776
  %14 = and i64 %13, 1152920405095219200
  %15 = and i64 %7, -1152920405095219201
  %16 = or disjoint i64 %14, %15
  store i64 %16, ptr %6, align 8
  br label %_ZN4cvc58internal12NodeTemplateILb1EEC2ERKS2_.exit

17:                                               ; preds = %3
  %18 = icmp eq i32 %10, 1048574
  br i1 %18, label %19, label %_ZN4cvc58internal12NodeTemplateILb1EEC2ERKS2_.exit, !prof !85

19:                                               ; preds = %17
  %20 = or i64 %7, 1152920405095219200
  store i64 %20, ptr %6, align 8
  tail call void @_ZN4cvc58internal4expr9NodeValue20markRefCountMaxedOutEv(ptr noundef nonnull align 8 dereferenceable(24) %6)
  br label %_ZN4cvc58internal12NodeTemplateILb1EEC2ERKS2_.exit

_ZN4cvc58internal12NodeTemplateILb1EEC2ERKS2_.exit: ; preds = %12, %17, %19
  %21 = load ptr, ptr %2, align 8, !tbaa !11
  store ptr %21, ptr %5, align 8, !tbaa !11
  %22 = load i64, ptr %21, align 8
  %23 = lshr i64 %22, 40
  %24 = trunc nuw nsw i64 %23 to i32
  %25 = and i32 %24, 1048575
  %26 = icmp samesign ult i32 %25, 1048574
  br i1 %26, label %27, label %32, !prof !86

27:                                               ; preds = %_ZN4cvc58internal12NodeTemplateILb1EEC2ERKS2_.exit
  %28 = add i64 %22, 1099511627776
  %29 = and i64 %28, 1152920405095219200
  %30 = and i64 %22, -1152920405095219201
  %31 = or disjoint i64 %29, %30
  store i64 %31, ptr %21, align 8
  br label %_ZN4cvc58internal12NodeTemplateILb1EEC2ERKS2_.exit4

32:                                               ; preds = %_ZN4cvc58internal12NodeTemplateILb1EEC2ERKS2_.exit
  %33 = icmp eq i32 %25, 1048574
  br i1 %33, label %34, label %_ZN4cvc58internal12NodeTemplateILb1EEC2ERKS2_.exit4, !prof !85

34:                                               ; preds = %32
  %35 = or i64 %22, 1152920405095219200
  store i64 %35, ptr %21, align 8
  invoke void @_ZN4cvc58internal4expr9NodeValue20markRefCountMaxedOutEv(ptr noundef nonnull align 8 dereferenceable(24) %21)
          to label %_ZN4cvc58internal12NodeTemplateILb1EEC2ERKS2_.exit4 unwind label %65

_ZN4cvc58internal12NodeTemplateILb1EEC2ERKS2_.exit4: ; preds = %32, %27, %34
  %36 = getelementptr inbounds nuw i8, ptr %0, i64 488
  %37 = invoke noundef zeroext i1 @_ZN4cvc58internal6theory7strings12RegExpEntail14regExpIncludesENS0_12NodeTemplateILb1EEES5_RSt3mapISt4pairIS5_S5_EbSt4lessIS8_ESaIS7_IKS8_bEEE(ptr noundef nonnull %4, ptr noundef nonnull %5, ptr noundef nonnull align 8 dereferenceable(48) %36)
          to label %38 unwind label %67

38:                                               ; preds = %_ZN4cvc58internal12NodeTemplateILb1EEC2ERKS2_.exit4
  %39 = load ptr, ptr %5, align 8, !tbaa !11
  %40 = load i64, ptr %39, align 8
  %41 = and i64 %40, 1152920405095219200
  %.not.i.i = icmp eq i64 %41, 1152920405095219200
  br i1 %.not.i.i, label %_ZN4cvc58internal12NodeTemplateILb1EED2Ev.exit, label %42, !prof !85

42:                                               ; preds = %38
  %43 = add i64 %40, 1152920405095219200
  %44 = and i64 %43, 1152920405095219200
  %45 = and i64 %40, -1152920405095219201
  %46 = or disjoint i64 %44, %45
  store i64 %46, ptr %39, align 8
  %47 = icmp eq i64 %44, 0
  br i1 %47, label %48, label %_ZN4cvc58internal12NodeTemplateILb1EED2Ev.exit, !prof !85

48:                                               ; preds = %42
  invoke void @_ZN4cvc58internal4expr9NodeValue15markForDeletionEv(ptr noundef nonnull align 8 dereferenceable(24) %39)
          to label %_ZN4cvc58internal12NodeTemplateILb1EED2Ev.exit unwind label %49

49:                                               ; preds = %48
  %50 = landingpad { ptr, i32 }
          catch ptr null
  %51 = extractvalue { ptr, i32 } %50, 0
  call void @__clang_call_terminate(ptr %51) #26
  unreachable

_ZN4cvc58internal12NodeTemplateILb1EED2Ev.exit:   ; preds = %38, %42, %48
  %52 = load ptr, ptr %4, align 8, !tbaa !11
  %53 = load i64, ptr %52, align 8
  %54 = and i64 %53, 1152920405095219200
  %.not.i.i5 = icmp eq i64 %54, 1152920405095219200
  br i1 %.not.i.i5, label %_ZN4cvc58internal12NodeTemplateILb1EED2Ev.exit6, label %55, !prof !85

55:                                               ; preds = %_ZN4cvc58internal12NodeTemplateILb1EED2Ev.exit
  %56 = add i64 %53, 1152920405095219200
  %57 = and i64 %56, 1152920405095219200
  %58 = and i64 %53, -1152920405095219201
  %59 = or disjoint i64 %57, %58
  store i64 %59, ptr %52, align 8
  %60 = icmp eq i64 %57, 0
  br i1 %60, label %61, label %_ZN4cvc58internal12NodeTemplateILb1EED2Ev.exit6, !prof !85

61:                                               ; preds = %55
  invoke void @_ZN4cvc58internal4expr9NodeValue15markForDeletionEv(ptr noundef nonnull align 8 dereferenceable(24) %52)
          to label %_ZN4cvc58internal12NodeTemplateILb1EED2Ev.exit6 unwind label %62

62:                                               ; preds = %61
  %63 = landingpad { ptr, i32 }
          catch ptr null
  %64 = extractvalue { ptr, i32 } %63, 0
  call void @__clang_call_terminate(ptr %64) #26
  unreachable

_ZN4cvc58internal12NodeTemplateILb1EED2Ev.exit6:  ; preds = %_ZN4cvc58internal12NodeTemplateILb1EED2Ev.exit, %55, %61
  ret i1 %37

65:                                               ; preds = %34
  %66 = landingpad { ptr, i32 }
          cleanup
  br label %69

67:                                               ; preds = %_ZN4cvc58internal12NodeTemplateILb1EEC2ERKS2_.exit4
  %68 = landingpad { ptr, i32 }
          cleanup
  call void @_ZN4cvc58internal12NodeTemplateILb1EED2Ev(ptr noundef nonnull align 8 dereferenceable(8) %5) #24
  br label %69

69:                                               ; preds = %67, %65
  %.pn = phi { ptr, i32 } [ %68, %67 ], [ %66, %65 ]
  call void @_ZN4cvc58internal12NodeTemplateILb1EED2Ev(ptr noundef nonnull align 8 dereferenceable(8) %4) #24
  resume { ptr, i32 } %.pn
}